target datalayout = "e-m:e-p270:32:32-p271:32:32-p272:64:64-i64:64-i128:128-f80:128-n8:16:32:64-S128"
target triple = "x86_64-pc-linux-gnu"

%"class.icu_77::FormattedRelativeDateTime" = type <{ %"class.icu_77::FormattedValue", ptr, i32, [4 x i8] }>
%"class.icu_77::FormattedValue" = type { ptr }

; Function Attrs: inlinehint mustprogress nounwind uwtable
define internal noundef signext i8 @_ZL9U_FAILURE10UErrorCode(i32 noundef %0) #2 {
  %2 = alloca i32, align 4
  store i32 %0, ptr %2, align 4, !tbaa !15
  %3 = load i32, ptr %2, align 4, !tbaa !15
  %4 = icmp sgt i32 %3, 0
  %5 = zext i1 %4 to i8
  ret i8 %5
}

; Function Attrs: mustprogress uwtable
define noundef nonnull align 8 dereferenceable(8) ptr @_ZNK6icu_7725FormattedRelativeDateTime8appendToERNS_10AppendableER10UErrorCode(ptr noundef nonnull align 8 dereferenceable(20) %0, ptr noundef nonnull align 8 dereferenceable(8) %1, ptr noundef nonnull align 4 dereferenceable(4) %2) unnamed_addr #1 align 2 {
  %4 = alloca ptr, align 8
  %5 = alloca ptr, align 8
  %6 = alloca ptr, align 8
  %7 = alloca ptr, align 8
  store ptr %0, ptr %5, align 8, !tbaa !82
  store ptr %1, ptr %6, align 8, !tbaa !90
  store ptr %2, ptr %7, align 8, !tbaa !22
  %8 = load ptr, ptr %5, align 8
  %9 = load ptr, ptr %7, align 8, !tbaa !22
  %10 = load i32, ptr %9, align 4, !tbaa !15
  %11 = call noundef signext i8 @_ZL9U_FAILURE10UErrorCode(i32 noundef %10)
  %12 = icmp ne i8 %11, 0
  br i1 %12, label %13, label %15

13:                                               ; preds = %3
  %14 = load ptr, ptr %6, align 8, !tbaa !90
  store ptr %14, ptr %4, align 8
  br label %33

15:                                               ; preds = %3
  %16 = getelementptr inbounds nuw %"class.icu_77::FormattedRelativeDateTime", ptr %8, i32 0, i32 1
  %17 = load ptr, ptr %16, align 8, !tbaa !84
  %18 = icmp eq ptr %17, null
  br i1 %18, label %19, label %24

19:                                               ; preds = %15
  %20 = getelementptr inbounds nuw %"class.icu_77::FormattedRelativeDateTime", ptr %8, i32 0, i32 2
  %21 = load i32, ptr %20, align 8, !tbaa !87
  %22 = load ptr, ptr %7, align 8, !tbaa !22
  store i32 %21, ptr %22, align 4, !tbaa !15
  %23 = load ptr, ptr %6, align 8, !tbaa !90
  store ptr %23, ptr %4, align 8
  br label %33

24:                                               ; preds = %15
  %25 = getelementptr inbounds nuw %"class.icu_77::FormattedRelativeDateTime", ptr %8, i32 0, i32 1
  %26 = load ptr, ptr %25, align 8, !tbaa !84
  %27 = load ptr, ptr %6, align 8, !tbaa !90
  %28 = load ptr, ptr %7, align 8, !tbaa !22
  %29 = load ptr, ptr %26, align 8, !tbaa !25
  %30 = getelementptr inbounds ptr, ptr %29, i64 4
  %31 = load ptr, ptr %30, align 8
  %32 = call noundef nonnull align 8 dereferenceable(8) ptr %31(ptr noundef nonnull align 8 dereferenceable(300) %26, ptr noundef nonnull align 8 dereferenceable(8) %27, ptr noundef nonnull align 4 dereferenceable(4) %28)
  store ptr %32, ptr %4, align 8
  br label %33

33:                                               ; preds = %24, %19, %13
  %34 = load ptr, ptr %4, align 8
  ret ptr %34
}